; Function Attrs: nounwind uwtable
define dso_local { ptr, ptr } @gen_condbranch(ptr %0, ptr %1, ptr %2, ptr %3) local_unnamed_addr #1 {
  %5 = tail call ptr @jv_mem_alloc(i64 noundef 160) #17
  %6 = getelementptr inbounds nuw i8, ptr %5, i64 16
  tail call void @llvm.memset.p0.i64(ptr noundef nonnull align 8 dereferenceable(16) %5, i8 0, i64 16, i1 false)
  store i32 17, ptr %6, align 8, !tbaa !25
  %7 = getelementptr inbounds nuw i8, ptr %5, i64 152
  store i32 -1, ptr %7, align 8, !tbaa !26
  %8 = getelementptr inbounds nuw i8, ptr %5, i64 80
  %9 = getelementptr inbounds nuw i8, ptr %5, i64 104
  tail call void @llvm.memset.p0.i64(ptr noundef nonnull align 8 dereferenceable(24) %8, i8 0, i64 24, i1 false)
  store i32 -1, ptr %9, align 8, !tbaa !27
  %10 = getelementptr inbounds nuw i8, ptr %5, i64 108
  store i32 -1, ptr %10, align 4, !tbaa !28
  %11 = getelementptr inbounds nuw i8, ptr %5, i64 112
  %12 = getelementptr inbounds nuw i8, ptr %5, i64 72
  tail call void @llvm.memset.p0.i64(ptr noundef nonnull align 8 dereferenceable(32) %11, i8 0, i64 32, i1 false)
  store i64 -1, ptr %12, align 8
  %13 = getelementptr inbounds nuw i8, ptr %5, i64 64
  store ptr null, ptr %13, align 8, !tbaa !21
  %14 = getelementptr inbounds nuw i8, ptr %5, i64 32
  store ptr %3, ptr %14, align 8, !tbaa !32
  %.not7.i.i = icmp eq ptr %1, null
  br i1 %.not7.i.i, label %block_join.exit, label %15

15:                                               ; preds = %4
  store ptr %5, ptr %1, align 8, !tbaa !22
  %16 = getelementptr inbounds nuw i8, ptr %5, i64 8
  store ptr %1, ptr %16, align 8, !tbaa !34
  br label %block_join.exit

block_join.exit:                                  ; preds = %4, %15
  %.sroa.0.1.i = phi ptr [ %5, %4 ], [ %0, %15 ]
  %17 = tail call ptr @jv_mem_alloc(i64 noundef 160) #17
  %18 = getelementptr inbounds nuw i8, ptr %17, i64 16
  tail call void @llvm.memset.p0.i64(ptr noundef nonnull align 8 dereferenceable(16) %17, i8 0, i64 16, i1 false)
  store i32 18, ptr %18, align 8, !tbaa !25
  %19 = getelementptr inbounds nuw i8, ptr %17, i64 152
  store i32 -1, ptr %19, align 8, !tbaa !26
  %20 = getelementptr inbounds nuw i8, ptr %17, i64 80
  %21 = getelementptr inbounds nuw i8, ptr %17, i64 104
  tail call void @llvm.memset.p0.i64(ptr noundef nonnull align 8 dereferenceable(24) %20, i8 0, i64 24, i1 false)
  store i32 -1, ptr %21, align 8, !tbaa !27
  %22 = getelementptr inbounds nuw i8, ptr %17, i64 108
  store i32 -1, ptr %22, align 4, !tbaa !28
  %23 = getelementptr inbounds nuw i8, ptr %17, i64 112
  %24 = getelementptr inbounds nuw i8, ptr %17, i64 72
  tail call void @llvm.memset.p0.i64(ptr noundef nonnull align 8 dereferenceable(32) %23, i8 0, i64 32, i1 false)
  store i64 -1, ptr %24, align 8
  %25 = getelementptr inbounds nuw i8, ptr %17, i64 64
  store ptr null, ptr %25, align 8, !tbaa !21
  %26 = getelementptr inbounds nuw i8, ptr %17, i64 32
  store ptr %5, ptr %26, align 8, !tbaa !32
  %.not.i.i18 = icmp eq ptr %.sroa.0.1.i, null
  br i1 %.not.i.i18, label %block_join.exit24, label %27

27:                                               ; preds = %block_join.exit
  store ptr %.sroa.0.1.i, ptr %17, align 8, !tbaa !22
  %28 = getelementptr inbounds nuw i8, ptr %.sroa.0.1.i, i64 8
  store ptr %17, ptr %28, align 8, !tbaa !34
  br label %block_join.exit24

block_join.exit24:                                ; preds = %block_join.exit, %27
  %.sroa.3.0.i20 = phi ptr [ %17, %block_join.exit ], [ %5, %27 ]
  %.not.i.i25 = icmp eq ptr %2, null
  br i1 %.not.i.i25, label %block_join.exit31, label %29

29:                                               ; preds = %block_join.exit24
  store ptr %2, ptr %.sroa.3.0.i20, align 8, !tbaa !22
  %30 = getelementptr inbounds nuw i8, ptr %2, i64 8
  store ptr %.sroa.3.0.i20, ptr %30, align 8, !tbaa !34
  br label %block_join.exit31

block_join.exit31:                                ; preds = %block_join.exit24, %29
  %.sroa.3.0.i27 = phi ptr [ %.sroa.3.0.i20, %block_join.exit24 ], [ %3, %29 ]
  %.fca.0.insert.i29 = insertvalue { ptr, ptr } poison, ptr %17, 0
  %.fca.1.insert.i30 = insertvalue { ptr, ptr } %.fca.0.insert.i29, ptr %.sroa.3.0.i27, 1
  ret { ptr, ptr } %.fca.1.insert.i30
}